; ModuleID = '10/1245.c'
source_filename = "10/1245.c"
target datalayout = "e-m:e-p270:32:32-p271:32:32-p272:64:64-i64:64-f80:128-n8:16:32:64-S128"
target triple = "x86_64-pc-linux-gnu"

@.str = private unnamed_addr constant [3 x i8] c"%d\00", align 1
@.str.1 = private unnamed_addr constant [4 x i8] c"%d\0A\00", align 1

; Function Attrs: noinline nounwind uwtable
define dso_local i32 @main() #0 {
  %1 = alloca i32, align 4
  %2 = alloca i32, align 4
  %3 = alloca i32, align 4
  %4 = alloca i32, align 4
  %5 = alloca i32, align 4
  %6 = alloca i8*, align 8
  %7 = alloca i64, align 8
  %8 = alloca i64, align 8
  store i32 0, i32* %1, align 4
  %9 = call i32 (i8*, ...) @__isoc99_scanf(i8* getelementptr inbounds ([3 x i8], [3 x i8]* @.str, i64 0, i64 0), i32* %2)
  %10 = load i32, i32* %2, align 4
  %11 = zext i32 %10 to i64
  %12 = call i8* @llvm.stacksave()
  store i8* %12, i8** %6, align 8
  %13 = alloca i32, i64 %11, align 16
  store i64 %11, i64* %7, align 8
  %14 = load i32, i32* %2, align 4
  %15 = zext i32 %14 to i64
  %16 = alloca i32, i64 %15, align 16
  store i64 %15, i64* %8, align 8
  store i32 0, i32* %3, align 4
  br label %17

17:                                               ; preds = %26, %0
  %18 = load i32, i32* %3, align 4
  %19 = load i32, i32* %2, align 4
  %20 = icmp slt i32 %18, %19
  br i1 %20, label %21, label %29

21:                                               ; preds = %17
  %22 = load i32, i32* %3, align 4
  %23 = sext i32 %22 to i64
  %24 = getelementptr inbounds i32, i32* %13, i64 %23
  %25 = call i32 (i8*, ...) @__isoc99_scanf(i8* getelementptr inbounds ([3 x i8], [3 x i8]* @.str, i64 0, i64 0), i32* %24)
  br label %26

26:                                               ; preds = %21
  %27 = load i32, i32* %3, align 4
  %28 = add nsw i32 %27, 1
  store i32 %28, i32* %3, align 4
  br label %17

29:                                               ; preds = %17
  %30 = load i32, i32* %2, align 4
  %31 = sub nsw i32 %30, 1
  %32 = sext i32 %31 to i64
  %33 = getelementptr inbounds i32, i32* %16, i64 %32
  store i32 1, i32* %33, align 4
  store i32 1, i32* %5, align 4
  %34 = load i32, i32* %2, align 4
  %35 = sub nsw i32 %34, 2
  store i32 %35, i32* %3, align 4
  br label %36

36:                                               ; preds = %102, %29
  %37 = load i32, i32* %3, align 4
  %38 = icmp sge i32 %37, 0
  br i1 %38, label %39, label %105

39:                                               ; preds = %36
  %40 = load i32, i32* %3, align 4
  %41 = sext i32 %40 to i64
  %42 = getelementptr inbounds i32, i32* %16, i64 %41
  store i32 0, i32* %42, align 4
  %43 = load i32, i32* %2, align 4
  %44 = sub nsw i32 %43, 1
  store i32 %44, i32* %4, align 4
  br label %45

45:                                               ; preds = %78, %39
  %46 = load i32, i32* %4, align 4
  %47 = load i32, i32* %3, align 4
  %48 = icmp sgt i32 %46, %47
  br i1 %48, label %49, label %81

49:                                               ; preds = %45
  %50 = load i32, i32* %3, align 4
  %51 = sext i32 %50 to i64
  %52 = getelementptr inbounds i32, i32* %13, i64 %51
  %53 = load i32, i32* %52, align 4
  %54 = load i32, i32* %4, align 4
  %55 = sext i32 %54 to i64
  %56 = getelementptr inbounds i32, i32* %13, i64 %55
  %57 = load i32, i32* %56, align 4
  %58 = icmp sge i32 %53, %57
  br i1 %58, label %59, label %77

59:                                               ; preds = %49
  %60 = load i32, i32* %3, align 4
  %61 = sext i32 %60 to i64
  %62 = getelementptr inbounds i32, i32* %16, i64 %61
  %63 = load i32, i32* %62, align 4
  %64 = load i32, i32* %4, align 4
  %65 = sext i32 %64 to i64
  %66 = getelementptr inbounds i32, i32* %16, i64 %65
  %67 = load i32, i32* %66, align 4
  %68 = icmp slt i32 %63, %67
  br i1 %68, label %69, label %77

69:                                               ; preds = %59
  %70 = load i32, i32* %4, align 4
  %71 = sext i32 %70 to i64
  %72 = getelementptr inbounds i32, i32* %16, i64 %71
  %73 = load i32, i32* %72, align 4
  %74 = load i32, i32* %3, align 4
  %75 = sext i32 %74 to i64
  %76 = getelementptr inbounds i32, i32* %16, i64 %75
  store i32 %73, i32* %76, align 4
  br label %77

77:                                               ; preds = %69, %59, %49
  br label %78

78:                                               ; preds = %77
  %79 = load i32, i32* %4, align 4
  %80 = add nsw i32 %79, -1
  store i32 %80, i32* %4, align 4
  br label %45

81:                                               ; preds = %45
  %82 = load i32, i32* %3, align 4
  %83 = sext i32 %82 to i64
  %84 = getelementptr inbounds i32, i32* %16, i64 %83
  %85 = load i32, i32* %84, align 4
  %86 = add nsw i32 %85, 1
  %87 = load i32, i32* %3, align 4
  %88 = sext i32 %87 to i64
  %89 = getelementptr inbounds i32, i32* %16, i64 %88
  store i32 %86, i32* %89, align 4
  %90 = load i32, i32* %3, align 4
  %91 = sext i32 %90 to i64
  %92 = getelementptr inbounds i32, i32* %16, i64 %91
  %93 = load i32, i32* %92, align 4
  %94 = load i32, i32* %5, align 4
  %95 = icmp sgt i32 %93, %94
  br i1 %95, label %96, label %101

96:                                               ; preds = %81
  %97 = load i32, i32* %3, align 4
  %98 = sext i32 %97 to i64
  %99 = getelementptr inbounds i32, i32* %16, i64 %98
  %100 = load i32, i32* %99, align 4
  store i32 %100, i32* %5, align 4
  br label %101

101:                                              ; preds = %96, %81
  br label %102

102:                                              ; preds = %101
  %103 = load i32, i32* %3, align 4
  %104 = add nsw i32 %103, -1
  store i32 %104, i32* %3, align 4
  br label %36

105:                                              ; preds = %36
  %106 = load i32, i32* %5, align 4
  %107 = call i32 (i8*, ...) @printf(i8* getelementptr inbounds ([4 x i8], [4 x i8]* @.str.1, i64 0, i64 0), i32 %106)
  %108 = call i32 @getchar()
  %109 = call i32 @getchar()
  %110 = load i8*, i8** %6, align 8
  call void @llvm.stackrestore(i8* %110)
  %111 = load i32, i32* %1, align 4
  ret i32 %111
}

declare dso_local i32 @__isoc99_scanf(i8*, ...) #1

; Function Attrs: nounwind
declare i8* @llvm.stacksave() #2

declare dso_local i32 @printf(i8*, ...) #1

declare dso_local i32 @getchar() #1

; Function Attrs: nounwind
declare void @llvm.stackrestore(i8*) #2


!llvm.module.flags = !{!0}
!llvm.ident = !{!1}

!0 = !{i32 1, !"wchar_size", i32 4}
!1 = !{!"clang version 10.0.0-4ubuntu1 "}
