; ModuleID = 'source-C-CXX/9/1245.c'
source_filename = "source-C-CXX/9/1245.c"
target datalayout = "e-m:e-p270:32:32-p271:32:32-p272:64:64-i64:64-f80:128-n8:16:32:64-S128"
target triple = "x86_64-pc-linux-gnu"

%struct._IO_FILE = type { i32, i8*, i8*, i8*, i8*, i8*, i8*, i8*, i8*, i8*, i8*, i8*, %struct._IO_marker*, %struct._IO_FILE*, i32, i32, i64, i16, i8, [1 x i8], i8*, i64, %struct._IO_codecvt*, %struct._IO_wide_data*, %struct._IO_FILE*, i8*, i64, i32, [20 x i8] }
%struct._IO_marker = type opaque
%struct._IO_codecvt = type opaque
%struct._IO_wide_data = type opaque

@.str = private unnamed_addr constant [3 x i8] c"%d\00", align 1
@.str.1 = private unnamed_addr constant [4 x i8] c"%d\0A\00", align 1
@stdin = external local_unnamed_addr global %struct._IO_FILE*, align 8

; Function Attrs: nofree nounwind sspstrong uwtable
define dso_local i32 @main() local_unnamed_addr #0 {
  %1 = alloca i32, align 4
  %2 = bitcast i32* %1 to i8*
  call void @llvm.lifetime.start.p0i8(i64 4, i8* nonnull %2) #4
  %3 = call i32 (i8*, ...) @__isoc99_scanf(i8* getelementptr inbounds ([3 x i8], [3 x i8]* @.str, i64 0, i64 0), i32* nonnull %1)
  %4 = load i32, i32* %1, align 4, !tbaa !5
  %5 = zext i32 %4 to i64
  %6 = call i8* @llvm.stacksave()
  %7 = alloca i32, i64 %5, align 16
  %8 = load i32, i32* %1, align 4, !tbaa !5
  %9 = zext i32 %8 to i64
  %10 = alloca i32, i64 %9, align 16
  %11 = icmp sgt i32 %8, 0
  br i1 %11, label %16, label %12

12:                                               ; preds = %0
  %13 = add nsw i32 %8, -1
  %14 = sext i32 %13 to i64
  %15 = getelementptr inbounds i32, i32* %10, i64 %14
  store i32 1, i32* %15, align 4, !tbaa !5
  br label %64

16:                                               ; preds = %0, %16
  %17 = phi i64 [ %20, %16 ], [ 0, %0 ]
  %18 = getelementptr inbounds i32, i32* %7, i64 %17
  %19 = call i32 (i8*, ...) @__isoc99_scanf(i8* getelementptr inbounds ([3 x i8], [3 x i8]* @.str, i64 0, i64 0), i32* nonnull %18)
  %20 = add nuw nsw i64 %17, 1
  %21 = load i32, i32* %1, align 4, !tbaa !5
  %22 = sext i32 %21 to i64
  %23 = icmp slt i64 %20, %22
  br i1 %23, label %16, label %24, !llvm.loop !9

24:                                               ; preds = %16
  %25 = add nsw i32 %21, -1
  %26 = sext i32 %25 to i64
  %27 = getelementptr inbounds i32, i32* %10, i64 %26
  store i32 1, i32* %27, align 4, !tbaa !5
  %28 = icmp sgt i32 %21, 1
  br i1 %28, label %29, label %64

29:                                               ; preds = %24
  %30 = zext i32 %21 to i64
  %31 = add nsw i64 %30, -1
  %32 = add nsw i32 %21, -2
  %33 = zext i32 %32 to i64
  br label %34

34:                                               ; preds = %29, %57
  %35 = phi i64 [ %33, %29 ], [ %63, %57 ]
  %36 = phi i32 [ 1, %29 ], [ %61, %57 ]
  %37 = getelementptr inbounds i32, i32* %10, i64 %35
  store i32 0, i32* %37, align 4, !tbaa !5
  %38 = icmp slt i64 %35, %26
  br i1 %38, label %39, label %57

39:                                               ; preds = %34
  %40 = getelementptr inbounds i32, i32* %7, i64 %35
  %41 = load i32, i32* %40, align 4, !tbaa !5
  br label %42

42:                                               ; preds = %39, %53
  %43 = phi i32 [ 0, %39 ], [ %54, %53 ]
  %44 = phi i64 [ %31, %39 ], [ %55, %53 ]
  %45 = getelementptr inbounds i32, i32* %7, i64 %44
  %46 = load i32, i32* %45, align 4, !tbaa !5
  %47 = icmp slt i32 %41, %46
  br i1 %47, label %53, label %48

48:                                               ; preds = %42
  %49 = getelementptr inbounds i32, i32* %10, i64 %44
  %50 = load i32, i32* %49, align 4, !tbaa !5
  %51 = icmp slt i32 %43, %50
  br i1 %51, label %52, label %53

52:                                               ; preds = %48
  store i32 %50, i32* %37, align 4, !tbaa !5
  br label %53

53:                                               ; preds = %42, %48, %52
  %54 = phi i32 [ %43, %42 ], [ %43, %48 ], [ %50, %52 ]
  %55 = add nsw i64 %44, -1
  %56 = icmp sgt i64 %55, %35
  br i1 %56, label %42, label %57, !llvm.loop !11

57:                                               ; preds = %53, %34
  %58 = phi i32 [ 0, %34 ], [ %54, %53 ]
  %59 = add nsw i32 %58, 1
  store i32 %59, i32* %37, align 4, !tbaa !5
  %60 = icmp slt i32 %58, %36
  %61 = select i1 %60, i32 %36, i32 %59
  %62 = icmp sgt i64 %35, 0
  %63 = add nsw i64 %35, -1
  br i1 %62, label %34, label %64, !llvm.loop !12

64:                                               ; preds = %57, %12, %24
  %65 = phi i32 [ 1, %24 ], [ 1, %12 ], [ %61, %57 ]
  %66 = call i32 (i8*, ...) @printf(i8* nonnull dereferenceable(1) getelementptr inbounds ([4 x i8], [4 x i8]* @.str.1, i64 0, i64 0), i32 %65)
  %67 = load %struct._IO_FILE*, %struct._IO_FILE** @stdin, align 8, !tbaa !13
  %68 = call i32 @getc(%struct._IO_FILE* %67) #4
  %69 = load %struct._IO_FILE*, %struct._IO_FILE** @stdin, align 8, !tbaa !13
  %70 = call i32 @getc(%struct._IO_FILE* %69) #4
  call void @llvm.stackrestore(i8* %6)
  call void @llvm.lifetime.end.p0i8(i64 4, i8* nonnull %2) #4
  ret i32 0
}

; Function Attrs: argmemonly mustprogress nofree nosync nounwind willreturn
declare void @llvm.lifetime.start.p0i8(i64 immarg, i8* nocapture) #1

; Function Attrs: nofree nounwind
declare noundef i32 @__isoc99_scanf(i8* nocapture noundef readonly, ...) local_unnamed_addr #2

; Function Attrs: mustprogress nofree nosync nounwind willreturn
declare i8* @llvm.stacksave() #3

; Function Attrs: nofree nounwind
declare noundef i32 @printf(i8* nocapture noundef readonly, ...) local_unnamed_addr #2

; Function Attrs: mustprogress nofree nosync nounwind willreturn
declare void @llvm.stackrestore(i8*) #3

; Function Attrs: argmemonly mustprogress nofree nosync nounwind willreturn
declare void @llvm.lifetime.end.p0i8(i64 immarg, i8* nocapture) #1

; Function Attrs: nofree nounwind
declare noundef i32 @getc(%struct._IO_FILE* nocapture noundef) local_unnamed_addr #2


!llvm.module.flags = !{!0, !1, !2, !3}
!llvm.ident = !{!4}

!0 = !{i32 1, !"wchar_size", i32 4}
!1 = !{i32 7, !"PIC Level", i32 2}
!2 = !{i32 7, !"PIE Level", i32 2}
!3 = !{i32 7, !"uwtable", i32 1}
!4 = !{!"clang version 13.0.0"}
!5 = !{!6, !6, i64 0}
!6 = !{!"int", !7, i64 0}
!7 = !{!"omnipotent char", !8, i64 0}
!8 = !{!"Simple C/C++ TBAA"}
!9 = distinct !{!9, !10}
!10 = !{!"llvm.loop.mustprogress"}
!11 = distinct !{!11, !10}
!12 = distinct !{!12, !10}
!13 = !{!14, !14, i64 0}
!14 = !{!"any pointer", !7, i64 0}
